; ModuleID = '60/705.c'
source_filename = "60/705.c"
target datalayout = "e-m:e-p270:32:32-p271:32:32-p272:64:64-i64:64-f80:128-n8:16:32:64-S128"
target triple = "x86_64-pc-linux-gnu"

@.str = private unnamed_addr constant [3 x i8] c"%d\00", align 1
@.str.1 = private unnamed_addr constant [7 x i8] c"%d %d\0A\00", align 1
@.str.2 = private unnamed_addr constant [7 x i8] c"empty\0A\00", align 1

; Function Attrs: noinline nounwind uwtable
define dso_local void @main() #0 {
  %1 = alloca i32, align 4
  %2 = alloca i32, align 4
  %3 = alloca i32, align 4
  store i32 0, i32* %3, align 4
  %4 = call i32 (i8*, ...) @__isoc99_scanf(i8* getelementptr inbounds ([3 x i8], [3 x i8]* @.str, i64 0, i64 0), i32* %1)
  store i32 3, i32* %2, align 4
  br label %5

5:                                                ; preds = %29, %0
  %6 = load i32, i32* %2, align 4
  %7 = load i32, i32* %1, align 4
  %8 = icmp sle i32 %6, %7
  br i1 %8, label %9, label %32

9:                                                ; preds = %5
  %10 = load i32, i32* %2, align 4
  %11 = add nsw i32 %10, 2
  %12 = load i32, i32* %1, align 4
  %13 = icmp sle i32 %11, %12
  br i1 %13, label %14, label %28

14:                                               ; preds = %9
  %15 = load i32, i32* %2, align 4
  %16 = call i32 @sushu(i32 %15)
  %17 = load i32, i32* %2, align 4
  %18 = add nsw i32 %17, 2
  %19 = call i32 @sushu(i32 %18)
  %20 = add nsw i32 %16, %19
  %21 = icmp eq i32 %20, 2
  br i1 %21, label %22, label %27

22:                                               ; preds = %14
  store i32 1, i32* %3, align 4
  %23 = load i32, i32* %2, align 4
  %24 = load i32, i32* %2, align 4
  %25 = add nsw i32 %24, 2
  %26 = call i32 (i8*, ...) @printf(i8* getelementptr inbounds ([7 x i8], [7 x i8]* @.str.1, i64 0, i64 0), i32 %23, i32 %25)
  br label %27

27:                                               ; preds = %22, %14
  br label %28

28:                                               ; preds = %27, %9
  br label %29

29:                                               ; preds = %28
  %30 = load i32, i32* %2, align 4
  %31 = add nsw i32 %30, 2
  store i32 %31, i32* %2, align 4
  br label %5

32:                                               ; preds = %5
  %33 = load i32, i32* %3, align 4
  %34 = icmp eq i32 %33, 0
  br i1 %34, label %35, label %37

35:                                               ; preds = %32
  %36 = call i32 (i8*, ...) @printf(i8* getelementptr inbounds ([7 x i8], [7 x i8]* @.str.2, i64 0, i64 0))
  br label %37

37:                                               ; preds = %35, %32
  ret void
}

declare dso_local i32 @__isoc99_scanf(i8*, ...) #1

; Function Attrs: noinline nounwind uwtable
define dso_local i32 @sushu(i32 %0) #0 {
  %2 = alloca i32, align 4
  %3 = alloca i32, align 4
  %4 = alloca i32, align 4
  %5 = alloca i32, align 4
  store i32 %0, i32* %3, align 4
  store i32 1, i32* %4, align 4
  %6 = load i32, i32* %3, align 4
  %7 = srem i32 %6, 2
  %8 = icmp eq i32 %7, 0
  br i1 %8, label %9, label %11

9:                                                ; preds = %1
  store i32 0, i32* %4, align 4
  %10 = load i32, i32* %4, align 4
  store i32 %10, i32* %2, align 4
  br label %33

11:                                               ; preds = %1
  store i32 3, i32* %5, align 4
  br label %12

12:                                               ; preds = %27, %11
  %13 = load i32, i32* %5, align 4
  %14 = sitofp i32 %13 to double
  %15 = load i32, i32* %3, align 4
  %16 = sitofp i32 %15 to double
  %17 = call double @sqrt(double %16) #3
  %18 = fadd double %17, 1.000000e+00
  %19 = fcmp ole double %14, %18
  br i1 %19, label %20, label %30

20:                                               ; preds = %12
  %21 = load i32, i32* %3, align 4
  %22 = load i32, i32* %5, align 4
  %23 = srem i32 %21, %22
  %24 = icmp eq i32 %23, 0
  br i1 %24, label %25, label %26

25:                                               ; preds = %20
  store i32 0, i32* %4, align 4
  br label %26

26:                                               ; preds = %25, %20
  br label %27

27:                                               ; preds = %26
  %28 = load i32, i32* %5, align 4
  %29 = add nsw i32 %28, 2
  store i32 %29, i32* %5, align 4
  br label %12

30:                                               ; preds = %12
  br label %31

31:                                               ; preds = %30
  %32 = load i32, i32* %4, align 4
  store i32 %32, i32* %2, align 4
  br label %33

33:                                               ; preds = %31, %9
  %34 = load i32, i32* %2, align 4
  ret i32 %34
}

declare dso_local i32 @printf(i8*, ...) #1

; Function Attrs: nounwind
declare dso_local double @sqrt(double) #2


!llvm.module.flags = !{!0}
!llvm.ident = !{!1}

!0 = !{i32 1, !"wchar_size", i32 4}
!1 = !{!"clang version 10.0.0-4ubuntu1 "}
